target datalayout = "e-m:e-p270:32:32-p271:32:32-p272:64:64-i64:64-i128:128-f80:128-n8:16:32:64-S128"
target triple = "x86_64-pc-linux-gnu"

%"class.grpc_core::Chttp2PingCallbacks" = type { %"class.absl::lts_20240722::flat_hash_map", i64, i8, i8, %"class.std::vector", %"class.std::vector" }
%"class.absl::lts_20240722::flat_hash_map" = type { %"class.absl::lts_20240722::container_internal::raw_hash_map" }
%"class.absl::lts_20240722::container_internal::raw_hash_map" = type { %"class.absl::lts_20240722::container_internal::raw_hash_set" }
%"class.absl::lts_20240722::container_internal::raw_hash_set" = type { %"class.absl::lts_20240722::container_internal::CompressedTuple" }
%"class.absl::lts_20240722::container_internal::CompressedTuple" = type { %"struct.absl::lts_20240722::container_internal::internal_compressed_tuple::CompressedTupleImpl" }
%"struct.absl::lts_20240722::container_internal::internal_compressed_tuple::CompressedTupleImpl" = type { %"struct.absl::lts_20240722::container_internal::internal_compressed_tuple::Storage" }
%"struct.absl::lts_20240722::container_internal::internal_compressed_tuple::Storage" = type { %"class.absl::lts_20240722::container_internal::CommonFields" }
%"class.absl::lts_20240722::container_internal::CommonFields" = type { i64, i64, %"union.absl::lts_20240722::container_internal::HeapOrSoo" }
%"union.absl::lts_20240722::container_internal::HeapOrSoo" = type { %"struct.absl::lts_20240722::container_internal::HeapPtrs" }
%"struct.absl::lts_20240722::container_internal::HeapPtrs" = type { ptr, %"union.absl::lts_20240722::container_internal::MaybeInitializedPtr" }
%"union.absl::lts_20240722::container_internal::MaybeInitializedPtr" = type { ptr }
%"class.std::vector" = type { %"struct.std::_Vector_base" }
%"struct.std::_Vector_base" = type { %"struct.std::_Vector_base<absl::lts_20240722::AnyInvocable<void ()>, std::allocator<absl::lts_20240722::AnyInvocable<void ()>>>::_Vector_impl" }
%"struct.std::_Vector_base<absl::lts_20240722::AnyInvocable<void ()>, std::allocator<absl::lts_20240722::AnyInvocable<void ()>>>::_Vector_impl" = type { %"struct.std::_Vector_base<absl::lts_20240722::AnyInvocable<void ()>, std::allocator<absl::lts_20240722::AnyInvocable<void ()>>>::_Vector_impl_data" }
%"struct.std::_Vector_base<absl::lts_20240722::AnyInvocable<void ()>, std::allocator<absl::lts_20240722::AnyInvocable<void ()>>>::_Vector_impl_data" = type { ptr, ptr, ptr }
%"class.__gnu_cxx::__normal_iterator" = type { ptr }
%"class.absl::lts_20240722::AnyInvocable" = type { %"class.absl::lts_20240722::internal_any_invocable::Impl" }
%"class.absl::lts_20240722::internal_any_invocable::Impl" = type { %"class.absl::lts_20240722::internal_any_invocable::CoreImpl" }
%"class.absl::lts_20240722::internal_any_invocable::CoreImpl" = type { %"union.absl::lts_20240722::internal_any_invocable::TypeErasedState", ptr, ptr }
%"union.absl::lts_20240722::internal_any_invocable::TypeErasedState" = type { %struct.anon }
%struct.anon = type { ptr, i64 }

; Function Attrs: mustprogress nounwind uwtable
define linkonce_odr void @_ZN4absl12lts_2024072222internal_any_invocable8CoreImplILb0EvJEEC2EOS3_(ptr noundef nonnull align 16 dereferenceable(32) %0, ptr noundef nonnull align 16 dereferenceable(32) %1) unnamed_addr #6 comdat align 2 {
  %3 = alloca ptr, align 8
  %4 = alloca ptr, align 8
  store ptr %0, ptr %3, align 8, !tbaa !87
  store ptr %1, ptr %4, align 8, !tbaa !87
  %5 = load ptr, ptr %3, align 8
  %6 = load ptr, ptr %4, align 8, !tbaa !87
  %7 = getelementptr inbounds nuw %"class.absl::lts_20240722::internal_any_invocable::CoreImpl", ptr %6, i32 0, i32 1
  %8 = load ptr, ptr %7, align 16, !tbaa !89
  %9 = load ptr, ptr %4, align 8, !tbaa !87
  %10 = getelementptr inbounds nuw %"class.absl::lts_20240722::internal_any_invocable::CoreImpl", ptr %9, i32 0, i32 0
  %11 = getelementptr inbounds nuw %"class.absl::lts_20240722::internal_any_invocable::CoreImpl", ptr %5, i32 0, i32 0
  call void %8(i1 noundef zeroext false, ptr noundef %10, ptr noundef %11) #3
  %12 = load ptr, ptr %4, align 8, !tbaa !87
  %13 = getelementptr inbounds nuw %"class.absl::lts_20240722::internal_any_invocable::CoreImpl", ptr %12, i32 0, i32 1
  %14 = load ptr, ptr %13, align 16, !tbaa !89
  %15 = getelementptr inbounds nuw %"class.absl::lts_20240722::internal_any_invocable::CoreImpl", ptr %5, i32 0, i32 1
  store ptr %14, ptr %15, align 16, !tbaa !89
  %16 = load ptr, ptr %4, align 8, !tbaa !87
  %17 = getelementptr inbounds nuw %"class.absl::lts_20240722::internal_any_invocable::CoreImpl", ptr %16, i32 0, i32 2
  %18 = load ptr, ptr %17, align 8, !tbaa !134
  %19 = getelementptr inbounds nuw %"class.absl::lts_20240722::internal_any_invocable::CoreImpl", ptr %5, i32 0, i32 2
  store ptr %18, ptr %19, align 8, !tbaa !134
  %20 = load ptr, ptr %4, align 8, !tbaa !87
  %21 = getelementptr inbounds nuw %"class.absl::lts_20240722::internal_any_invocable::CoreImpl", ptr %20, i32 0, i32 1
  store ptr @_ZN4absl12lts_2024072222internal_any_invocable12EmptyManagerENS1_14FunctionToCallEPNS1_15TypeErasedStateES4_, ptr %21, align 16, !tbaa !89
  %22 = load ptr, ptr %4, align 8, !tbaa !87
  %23 = getelementptr inbounds nuw %"class.absl::lts_20240722::internal_any_invocable::CoreImpl", ptr %22, i32 0, i32 2
  store ptr null, ptr %23, align 8, !tbaa !134
  ret void
}

; Function Attrs: inlinehint mustprogress nounwind uwtable
define linkonce_odr void @_ZN4absl12lts_2024072222internal_any_invocable4ImplIFvvEEC2EOS4_(ptr noundef nonnull align 16 dereferenceable(32) %0, ptr noundef nonnull align 16 dereferenceable(32) %1) unnamed_addr #8 comdat align 2 {
  %3 = alloca ptr, align 8
  %4 = alloca ptr, align 8
  store ptr %0, ptr %3, align 8, !tbaa !53
  store ptr %1, ptr %4, align 8, !tbaa !53
  %5 = load ptr, ptr %3, align 8
  %6 = load ptr, ptr %4, align 8, !tbaa !53
  call void @_ZN4absl12lts_2024072222internal_any_invocable8CoreImplILb0EvJEEC2EOS3_(ptr noundef nonnull align 16 dereferenceable(32) %5, ptr noundef nonnull align 16 dereferenceable(32) %6) #3
  ret void
}

; Function Attrs: mustprogress nounwind uwtable
define linkonce_odr void @_ZN4absl12lts_2024072212AnyInvocableIFvvEEC2EOS3_(ptr noundef nonnull align 16 dereferenceable(32) %0, ptr noundef nonnull align 16 dereferenceable(32) %1) unnamed_addr #6 comdat align 2 {
  %3 = alloca ptr, align 8
  %4 = alloca ptr, align 8
  store ptr %0, ptr %3, align 8, !tbaa !8
  store ptr %1, ptr %4, align 8, !tbaa !8
  %5 = load ptr, ptr %3, align 8
  %6 = load ptr, ptr %4, align 8, !tbaa !8
  call void @_ZN4absl12lts_2024072222internal_any_invocable4ImplIFvvEEC2EOS4_(ptr noundef nonnull align 16 dereferenceable(32) %5, ptr noundef nonnull align 16 dereferenceable(32) %6) #3
  ret void
}

; Function Attrs: mustprogress nounwind uwtable
define linkonce_odr noundef nonnull align 16 dereferenceable(32) ptr @_ZNK9__gnu_cxx17__normal_iteratorIPN4absl12lts_2024072212AnyInvocableIFvvEEESt6vectorIS5_SaIS5_EEEdeEv(ptr noundef nonnull align 8 dereferenceable(8) %0) #6 comdat align 2 {
  %2 = alloca ptr, align 8
  store ptr %0, ptr %2, align 8, !tbaa !49
  %3 = load ptr, ptr %2, align 8
  %4 = getelementptr inbounds nuw %"class.__gnu_cxx::__normal_iterator", ptr %3, i32 0, i32 0
  %5 = load ptr, ptr %4, align 8, !tbaa !51
  ret ptr %5
}

; Function Attrs: mustprogress nounwind uwtable
define linkonce_odr ptr @_ZNK9__gnu_cxx17__normal_iteratorIPN4absl12lts_2024072212AnyInvocableIFvvEEESt6vectorIS5_SaIS5_EEEmiEl(ptr noundef nonnull align 8 dereferenceable(8) %0, i64 noundef %1) #6 comdat align 2 {
  %3 = alloca %"class.__gnu_cxx::__normal_iterator", align 8
  %4 = alloca ptr, align 8
  %5 = alloca i64, align 8
  %6 = alloca ptr, align 8
  store ptr %0, ptr %4, align 8, !tbaa !49
  store i64 %1, ptr %5, align 8, !tbaa !37
  %7 = load ptr, ptr %4, align 8
  call void @llvm.lifetime.start.p0(i64 8, ptr %6) #3
  %8 = getelementptr inbounds nuw %"class.__gnu_cxx::__normal_iterator", ptr %7, i32 0, i32 0
  %9 = load ptr, ptr %8, align 8, !tbaa !51
  %10 = load i64, ptr %5, align 8, !tbaa !37
  %11 = sub i64 0, %10
  %12 = getelementptr inbounds %"class.absl::lts_20240722::AnyInvocable", ptr %9, i64 %11
  store ptr %12, ptr %6, align 8, !tbaa !8
  call void @_ZN9__gnu_cxx17__normal_iteratorIPN4absl12lts_2024072212AnyInvocableIFvvEEESt6vectorIS5_SaIS5_EEEC2ERKS6_(ptr noundef nonnull align 8 dereferenceable(8) %3, ptr noundef nonnull align 8 dereferenceable(8) %6) #3
  call void @llvm.lifetime.end.p0(i64 8, ptr %6) #3
  %13 = getelementptr inbounds nuw %"class.__gnu_cxx::__normal_iterator", ptr %3, i32 0, i32 0
  %14 = load ptr, ptr %13, align 8
  ret ptr %14
}

; Function Attrs: mustprogress nounwind uwtable
define linkonce_odr void @_ZN9__gnu_cxx17__normal_iteratorIPN4absl12lts_2024072212AnyInvocableIFvvEEESt6vectorIS5_SaIS5_EEEC2ERKS6_(ptr noundef nonnull align 8 dereferenceable(8) %0, ptr noundef nonnull align 8 dereferenceable(8) %1) unnamed_addr #6 comdat align 2 {
  %3 = alloca ptr, align 8
  %4 = alloca ptr, align 8
  store ptr %0, ptr %3, align 8, !tbaa !49
  store ptr %1, ptr %4, align 8, !tbaa !140
  %5 = load ptr, ptr %3, align 8
  %6 = getelementptr inbounds nuw %"class.__gnu_cxx::__normal_iterator", ptr %5, i32 0, i32 0
  %7 = load ptr, ptr %4, align 8, !tbaa !140
  %8 = load ptr, ptr %7, align 8, !tbaa !8
  store ptr %8, ptr %6, align 8, !tbaa !51
  ret void
}

; Function Attrs: mustprogress nounwind uwtable
define linkonce_odr void @_ZNSt15__new_allocatorIN4absl12lts_2024072212AnyInvocableIFvvEEEE9constructIS4_JS4_EEEvPT_DpOT0_(ptr noundef nonnull align 1 dereferenceable(1) %0, ptr noundef %1, ptr noundef nonnull align 16 dereferenceable(32) %2) #6 comdat align 2 {
  %4 = alloca ptr, align 8
  %5 = alloca ptr, align 8
  %6 = alloca ptr, align 8
  store ptr %0, ptr %4, align 8, !tbaa !99
  store ptr %1, ptr %5, align 8, !tbaa !8
  store ptr %2, ptr %6, align 8, !tbaa !8
  %7 = load ptr, ptr %5, align 8, !tbaa !8
  %8 = load ptr, ptr %6, align 8, !tbaa !8
  call void @_ZN4absl12lts_2024072212AnyInvocableIFvvEEC2EOS3_(ptr noundef nonnull align 16 dereferenceable(32) %7, ptr noundef nonnull align 16 dereferenceable(32) %8) #3
  ret void
}

; Function Attrs: mustprogress nounwind uwtable
define linkonce_odr noundef nonnull align 16 dereferenceable(32) ptr @_ZNSt6vectorIN4absl12lts_2024072212AnyInvocableIFvvEEESaIS4_EE4backEv(ptr noundef nonnull align 8 dereferenceable(24) %0) #6 comdat align 2 {
  %2 = alloca ptr, align 8
  %3 = alloca %"class.__gnu_cxx::__normal_iterator", align 8
  %4 = alloca %"class.__gnu_cxx::__normal_iterator", align 8
  store ptr %0, ptr %2, align 8, !tbaa !25
  %5 = load ptr, ptr %2, align 8
  call void @llvm.lifetime.start.p0(i64 8, ptr %3) #3
  call void @llvm.lifetime.start.p0(i64 8, ptr %4) #3
  %6 = call ptr @_ZNSt6vectorIN4absl12lts_2024072212AnyInvocableIFvvEEESaIS4_EE3endEv(ptr noundef nonnull align 8 dereferenceable(24) %5) #3
  %7 = getelementptr inbounds nuw %"class.__gnu_cxx::__normal_iterator", ptr %4, i32 0, i32 0
  store ptr %6, ptr %7, align 8
  %8 = call ptr @_ZNK9__gnu_cxx17__normal_iteratorIPN4absl12lts_2024072212AnyInvocableIFvvEEESt6vectorIS5_SaIS5_EEEmiEl(ptr noundef nonnull align 8 dereferenceable(8) %4, i64 noundef 1) #3
  %9 = getelementptr inbounds nuw %"class.__gnu_cxx::__normal_iterator", ptr %3, i32 0, i32 0
  store ptr %8, ptr %9, align 8
  %10 = call noundef nonnull align 16 dereferenceable(32) ptr @_ZNK9__gnu_cxx17__normal_iteratorIPN4absl12lts_2024072212AnyInvocableIFvvEEESt6vectorIS5_SaIS5_EEEdeEv(ptr noundef nonnull align 8 dereferenceable(8) %3) #3
  call void @llvm.lifetime.end.p0(i64 8, ptr %4) #3
  call void @llvm.lifetime.end.p0(i64 8, ptr %3) #3
  ret ptr %10
}

; Function Attrs: mustprogress nounwind uwtable
define linkonce_odr ptr @_ZNSt6vectorIN4absl12lts_2024072212AnyInvocableIFvvEEESaIS4_EE3endEv(ptr noundef nonnull align 8 dereferenceable(24) %0) #6 comdat align 2 {
  %2 = alloca %"class.__gnu_cxx::__normal_iterator", align 8
  %3 = alloca ptr, align 8
  store ptr %0, ptr %3, align 8, !tbaa !25
  %4 = load ptr, ptr %3, align 8
  %5 = getelementptr inbounds nuw %"struct.std::_Vector_base", ptr %4, i32 0, i32 0
  %6 = getelementptr inbounds nuw %"struct.std::_Vector_base<absl::lts_20240722::AnyInvocable<void ()>, std::allocator<absl::lts_20240722::AnyInvocable<void ()>>>::_Vector_impl_data", ptr %5, i32 0, i32 1
  call void @_ZN9__gnu_cxx17__normal_iteratorIPN4absl12lts_2024072212AnyInvocableIFvvEEESt6vectorIS5_SaIS5_EEEC2ERKS6_(ptr noundef nonnull align 8 dereferenceable(8) %2, ptr noundef nonnull align 8 dereferenceable(8) %6) #3
  %7 = getelementptr inbounds nuw %"class.__gnu_cxx::__normal_iterator", ptr %2, i32 0, i32 0
  %8 = load ptr, ptr %7, align 8
  ret ptr %8
}

; Function Attrs: mustprogress nounwind uwtable
define linkonce_odr void @_ZNSt16allocator_traitsISaIN4absl12lts_2024072212AnyInvocableIFvvEEEEE9constructIS4_JS4_EEEvRS5_PT_DpOT0_(ptr noundef nonnull align 1 dereferenceable(1) %0, ptr noundef %1, ptr noundef nonnull align 16 dereferenceable(32) %2) #6 comdat align 2 {
  %4 = alloca ptr, align 8
  %5 = alloca ptr, align 8
  %6 = alloca ptr, align 8
  store ptr %0, ptr %4, align 8, !tbaa !95
  store ptr %1, ptr %5, align 8, !tbaa !8
  store ptr %2, ptr %6, align 8, !tbaa !8
  %7 = load ptr, ptr %4, align 8, !tbaa !95
  %8 = load ptr, ptr %5, align 8, !tbaa !8
  %9 = load ptr, ptr %6, align 8, !tbaa !8
  call void @_ZNSt15__new_allocatorIN4absl12lts_2024072212AnyInvocableIFvvEEEE9constructIS4_JS4_EEEvPT_DpOT0_(ptr noundef nonnull align 1 dereferenceable(1) %7, ptr noundef %8, ptr noundef nonnull align 16 dereferenceable(32) %9) #3
  ret void
}

; Function Attrs: mustprogress uwtable
define linkonce_odr noundef nonnull align 16 dereferenceable(32) ptr @_ZNSt6vectorIN4absl12lts_2024072212AnyInvocableIFvvEEESaIS4_EE12emplace_backIJS4_EEERS4_DpOT_(ptr noundef nonnull align 8 dereferenceable(24) %0, ptr noundef nonnull align 16 dereferenceable(32) %1) #4 comdat align 2 {
  %3 = alloca ptr, align 8
  %4 = alloca ptr, align 8
  %5 = alloca %"class.__gnu_cxx::__normal_iterator", align 8
  store ptr %0, ptr %3, align 8, !tbaa !25
  store ptr %1, ptr %4, align 8, !tbaa !8
  %6 = load ptr, ptr %3, align 8
  %7 = getelementptr inbounds nuw %"struct.std::_Vector_base", ptr %6, i32 0, i32 0
  %8 = getelementptr inbounds nuw %"struct.std::_Vector_base<absl::lts_20240722::AnyInvocable<void ()>, std::allocator<absl::lts_20240722::AnyInvocable<void ()>>>::_Vector_impl_data", ptr %7, i32 0, i32 1
  %9 = load ptr, ptr %8, align 8, !tbaa !27
  %10 = getelementptr inbounds nuw %"struct.std::_Vector_base", ptr %6, i32 0, i32 0
  %11 = getelementptr inbounds nuw %"struct.std::_Vector_base<absl::lts_20240722::AnyInvocable<void ()>, std::allocator<absl::lts_20240722::AnyInvocable<void ()>>>::_Vector_impl_data", ptr %10, i32 0, i32 2
  %12 = load ptr, ptr %11, align 8, !tbaa !28
  %13 = icmp ne ptr %9, %12
  br i1 %13, label %14, label %24

14:                                               ; preds = %2
  %15 = getelementptr inbounds nuw %"struct.std::_Vector_base", ptr %6, i32 0, i32 0
  %16 = getelementptr inbounds nuw %"struct.std::_Vector_base", ptr %6, i32 0, i32 0
  %17 = getelementptr inbounds nuw %"struct.std::_Vector_base<absl::lts_20240722::AnyInvocable<void ()>, std::allocator<absl::lts_20240722::AnyInvocable<void ()>>>::_Vector_impl_data", ptr %16, i32 0, i32 1
  %18 = load ptr, ptr %17, align 8, !tbaa !27
  %19 = load ptr, ptr %4, align 8, !tbaa !8
  call void @_ZNSt16allocator_traitsISaIN4absl12lts_2024072212AnyInvocableIFvvEEEEE9constructIS4_JS4_EEEvRS5_PT_DpOT0_(ptr noundef nonnull align 1 dereferenceable(1) %15, ptr noundef %18, ptr noundef nonnull align 16 dereferenceable(32) %19) #3
  %20 = getelementptr inbounds nuw %"struct.std::_Vector_base", ptr %6, i32 0, i32 0
  %21 = getelementptr inbounds nuw %"struct.std::_Vector_base<absl::lts_20240722::AnyInvocable<void ()>, std::allocator<absl::lts_20240722::AnyInvocable<void ()>>>::_Vector_impl_data", ptr %20, i32 0, i32 1
  %22 = load ptr, ptr %21, align 8, !tbaa !27
  %23 = getelementptr inbounds nuw %"class.absl::lts_20240722::AnyInvocable", ptr %22, i32 1
  store ptr %23, ptr %21, align 8, !tbaa !27
  br label %30

24:                                               ; preds = %2
  %25 = call ptr @_ZNSt6vectorIN4absl12lts_2024072212AnyInvocableIFvvEEESaIS4_EE3endEv(ptr noundef nonnull align 8 dereferenceable(24) %6) #3
  %26 = getelementptr inbounds nuw %"class.__gnu_cxx::__normal_iterator", ptr %5, i32 0, i32 0
  store ptr %25, ptr %26, align 8
  %27 = load ptr, ptr %4, align 8, !tbaa !8
  %28 = getelementptr inbounds nuw %"class.__gnu_cxx::__normal_iterator", ptr %5, i32 0, i32 0
  %29 = load ptr, ptr %28, align 8
  call void @_ZNSt6vectorIN4absl12lts_2024072212AnyInvocableIFvvEEESaIS4_EE17_M_realloc_insertIJS4_EEEvN9__gnu_cxx17__normal_iteratorIPS4_S6_EEDpOT_(ptr noundef nonnull align 8 dereferenceable(24) %6, ptr %29, ptr noundef nonnull align 16 dereferenceable(32) %27)
  br label %30

30:                                               ; preds = %24, %14
  %31 = call noundef nonnull align 16 dereferenceable(32) ptr @_ZNSt6vectorIN4absl12lts_2024072212AnyInvocableIFvvEEESaIS4_EE4backEv(ptr noundef nonnull align 8 dereferenceable(24) %6) #3
  ret ptr %31
}

; Function Attrs: mustprogress uwtable
define void @_ZN9grpc_core19Chttp2PingCallbacks6OnPingEN4absl12lts_2024072212AnyInvocableIFvvEEES5_(ptr noundef nonnull align 8 dereferenceable(96) %0, ptr noundef %1, ptr noundef %2) #4 align 2 {
  %4 = alloca ptr, align 8
  %5 = alloca ptr, align 8
  %6 = alloca ptr, align 8
  store ptr %0, ptr %4, align 8, !tbaa !3
  store ptr %1, ptr %5, align 8, !tbaa !8
  store ptr %2, ptr %6, align 8, !tbaa !8
  %7 = load ptr, ptr %4, align 8
  %8 = getelementptr inbounds nuw %"class.grpc_core::Chttp2PingCallbacks", ptr %7, i32 0, i32 4
  %9 = call noundef nonnull align 16 dereferenceable(32) ptr @_ZNSt6vectorIN4absl12lts_2024072212AnyInvocableIFvvEEESaIS4_EE12emplace_backIJS4_EEERS4_DpOT_(ptr noundef nonnull align 8 dereferenceable(24) %8, ptr noundef nonnull align 16 dereferenceable(32) %1)
  %10 = getelementptr inbounds nuw %"class.grpc_core::Chttp2PingCallbacks", ptr %7, i32 0, i32 5
  %11 = call noundef nonnull align 16 dereferenceable(32) ptr @_ZNSt6vectorIN4absl12lts_2024072212AnyInvocableIFvvEEESaIS4_EE12emplace_backIJS4_EEERS4_DpOT_(ptr noundef nonnull align 8 dereferenceable(24) %10, ptr noundef nonnull align 16 dereferenceable(32) %2)
  %12 = getelementptr inbounds nuw %"class.grpc_core::Chttp2PingCallbacks", ptr %7, i32 0, i32 2
  store i8 1, ptr %12, align 8, !tbaa !10
  ret void
}