; Function Attrs: mustprogress uwtable
define void @_ZN9grpc_core19Chttp2PingCallbacks6OnPingEN4absl12lts_2024072212AnyInvocableIFvvEEES5_(ptr noundef nonnull align 8 dereferenceable(96) %0, ptr noundef %1, ptr noundef %2) local_unnamed_addr #3 align 2 {
  %4 = getelementptr inbounds nuw i8, ptr %0, i64 56
  %5 = load ptr, ptr %4, align 8, !tbaa !3
  %6 = getelementptr inbounds nuw i8, ptr %0, i64 64
  %7 = load ptr, ptr %6, align 8, !tbaa !9
  %.not.i = icmp eq ptr %5, %7
  br i1 %.not.i, label %18, label %8

8:                                                ; preds = %3
  %9 = getelementptr inbounds nuw i8, ptr %1, i64 16
  %10 = load ptr, ptr %9, align 16, !tbaa !10
  tail call void %10(i1 noundef zeroext false, ptr noundef nonnull align 16 dereferenceable(32) %1, ptr noundef nonnull align 16 dereferenceable(32) %5) #23
  %11 = load ptr, ptr %9, align 16, !tbaa !10
  %12 = getelementptr inbounds nuw i8, ptr %5, i64 16
  store ptr %11, ptr %12, align 16, !tbaa !10
  %13 = getelementptr inbounds nuw i8, ptr %1, i64 24
  %14 = load ptr, ptr %13, align 8, !tbaa !12
  %15 = getelementptr inbounds nuw i8, ptr %5, i64 24
  store ptr %14, ptr %15, align 8, !tbaa !12
  store ptr @_ZN4absl12lts_2024072222internal_any_invocable12EmptyManagerENS1_14FunctionToCallEPNS1_15TypeErasedStateES4_, ptr %9, align 16, !tbaa !10
  store ptr null, ptr %13, align 8, !tbaa !12
  %16 = load ptr, ptr %4, align 8, !tbaa !3
  %17 = getelementptr inbounds nuw i8, ptr %16, i64 32
  store ptr %17, ptr %4, align 8, !tbaa !3
  br label %_ZNSt6vectorIN4absl12lts_2024072212AnyInvocableIFvvEEESaIS4_EE12emplace_backIJS4_EEERS4_DpOT_.exit

18:                                               ; preds = %3
  %19 = getelementptr inbounds nuw i8, ptr %0, i64 48
  tail call void @_ZNSt6vectorIN4absl12lts_2024072212AnyInvocableIFvvEEESaIS4_EE17_M_realloc_insertIJS4_EEEvN9__gnu_cxx17__normal_iteratorIPS4_S6_EEDpOT_(ptr noundef nonnull align 8 dereferenceable(24) %19, ptr %5, ptr noundef nonnull align 16 dereferenceable(32) %1)
  br label %_ZNSt6vectorIN4absl12lts_2024072212AnyInvocableIFvvEEESaIS4_EE12emplace_backIJS4_EEERS4_DpOT_.exit

_ZNSt6vectorIN4absl12lts_2024072212AnyInvocableIFvvEEESaIS4_EE12emplace_backIJS4_EEERS4_DpOT_.exit: ; preds = %8, %18
  %20 = getelementptr inbounds nuw i8, ptr %0, i64 80
  %21 = load ptr, ptr %20, align 8, !tbaa !3
  %22 = getelementptr inbounds nuw i8, ptr %0, i64 88
  %23 = load ptr, ptr %22, align 8, !tbaa !9
  %.not.i1 = icmp eq ptr %21, %23
  br i1 %.not.i1, label %34, label %24

24:                                               ; preds = %_ZNSt6vectorIN4absl12lts_2024072212AnyInvocableIFvvEEESaIS4_EE12emplace_backIJS4_EEERS4_DpOT_.exit
  %25 = getelementptr inbounds nuw i8, ptr %2, i64 16
  %26 = load ptr, ptr %25, align 16, !tbaa !10
  tail call void %26(i1 noundef zeroext false, ptr noundef nonnull align 16 dereferenceable(32) %2, ptr noundef nonnull align 16 dereferenceable(32) %21) #23
  %27 = load ptr, ptr %25, align 16, !tbaa !10
  %28 = getelementptr inbounds nuw i8, ptr %21, i64 16
  store ptr %27, ptr %28, align 16, !tbaa !10
  %29 = getelementptr inbounds nuw i8, ptr %2, i64 24
  %30 = load ptr, ptr %29, align 8, !tbaa !12
  %31 = getelementptr inbounds nuw i8, ptr %21, i64 24
  store ptr %30, ptr %31, align 8, !tbaa !12
  store ptr @_ZN4absl12lts_2024072222internal_any_invocable12EmptyManagerENS1_14FunctionToCallEPNS1_15TypeErasedStateES4_, ptr %25, align 16, !tbaa !10
  store ptr null, ptr %29, align 8, !tbaa !12
  %32 = load ptr, ptr %20, align 8, !tbaa !3
  %33 = getelementptr inbounds nuw i8, ptr %32, i64 32
  store ptr %33, ptr %20, align 8, !tbaa !3
  br label %_ZNSt6vectorIN4absl12lts_2024072212AnyInvocableIFvvEEESaIS4_EE12emplace_backIJS4_EEERS4_DpOT_.exit3

34:                                               ; preds = %_ZNSt6vectorIN4absl12lts_2024072212AnyInvocableIFvvEEESaIS4_EE12emplace_backIJS4_EEERS4_DpOT_.exit
  %35 = getelementptr inbounds nuw i8, ptr %0, i64 72
  tail call void @_ZNSt6vectorIN4absl12lts_2024072212AnyInvocableIFvvEEESaIS4_EE17_M_realloc_insertIJS4_EEEvN9__gnu_cxx17__normal_iteratorIPS4_S6_EEDpOT_(ptr noundef nonnull align 8 dereferenceable(24) %35, ptr %21, ptr noundef nonnull align 16 dereferenceable(32) %2)
  br label %_ZNSt6vectorIN4absl12lts_2024072212AnyInvocableIFvvEEESaIS4_EE12emplace_backIJS4_EEERS4_DpOT_.exit3

_ZNSt6vectorIN4absl12lts_2024072212AnyInvocableIFvvEEESaIS4_EE12emplace_backIJS4_EEERS4_DpOT_.exit3: ; preds = %24, %34
  %36 = getelementptr inbounds nuw i8, ptr %0, i64 40
  store i8 1, ptr %36, align 8, !tbaa !13
  ret void
}